; Function Attrs: mustprogress uwtable
define internal fastcc void @_ZN6duckdbL20ValidateOffsetInFileERKNSt7__cxx1112basic_stringIcSt11char_traitsIcESaIcEEEmmmS7_(ptr noundef nonnull align 8 dereferenceable(32) %0, i64 noundef %1, i64 noundef %2, i64 noundef %3, ptr noundef nonnull align 8 dereferenceable(32) %4) unnamed_addr #3 personality ptr @__gxx_personality_v0 {
  %6 = alloca %"class.std::__cxx11::basic_string", align 8
  %7 = alloca %"class.std::allocator.4", align 1
  %8 = alloca %"class.std::__cxx11::basic_string", align 8
  %9 = alloca %"class.std::__cxx11::basic_string", align 8
  %.not = icmp ult i64 %3, %2
  br i1 %.not, label %47, label %10

10:                                               ; preds = %5
  %11 = tail call ptr @__cxa_allocate_exception(i64 16) #27
  call void @llvm.lifetime.start.p0(i64 32, ptr nonnull %6) #27
  call void @llvm.lifetime.start.p0(i64 1, ptr nonnull %7) #27
  invoke void @_ZNSt7__cxx1112basic_stringIcSt11char_traitsIcESaIcEEC2EPKcRKS3_(ptr noundef nonnull align 8 dereferenceable(32) %6, ptr noundef nonnull @.str.13, ptr noundef nonnull align 1 dereferenceable(1) %7)
          to label %12 unwind label %_ZNSt7__cxx1112basic_stringIcSt11char_traitsIcESaIcEED2Ev.exit25.thread

12:                                               ; preds = %10
  invoke void @_ZNSt7__cxx1112basic_stringIcSt11char_traitsIcESaIcEEC2ERKS4_(ptr noundef nonnull align 8 dereferenceable(32) %8, ptr noundef nonnull align 8 dereferenceable(32) %0)
          to label %13 unwind label %_ZNSt7__cxx1112basic_stringIcSt11char_traitsIcESaIcEED2Ev.exit22.thread

13:                                               ; preds = %12
  invoke void @_ZNSt7__cxx1112basic_stringIcSt11char_traitsIcESaIcEEC2ERKS4_(ptr noundef nonnull align 8 dereferenceable(32) %9, ptr noundef nonnull align 8 dereferenceable(32) %4)
          to label %14 unwind label %17

14:                                               ; preds = %13
  invoke void @_ZN6duckdb11IOExceptionC2IJNSt7__cxx1112basic_stringIcSt11char_traitsIcESaIcEEEmS7_mmEEERKS7_DpT_(ptr noundef nonnull align 8 dereferenceable(16) %11, ptr noundef nonnull align 8 dereferenceable(32) %6, ptr noundef nonnull %8, i64 noundef %1, ptr noundef nonnull %9, i64 noundef %3, i64 noundef %2)
          to label %15 unwind label %19

15:                                               ; preds = %14
  invoke void @__cxa_throw(ptr nonnull %11, ptr nonnull @_ZTIN6duckdb11IOExceptionE, ptr nonnull @_ZNSt13runtime_errorD2Ev) #29
          to label %49 unwind label %19

_ZNSt7__cxx1112basic_stringIcSt11char_traitsIcESaIcEED2Ev.exit25.thread: ; preds = %10
  %16 = landingpad { ptr, i32 }
          cleanup
  br label %.sink.split

17:                                               ; preds = %13
  %18 = landingpad { ptr, i32 }
          cleanup
  br label %_ZNSt7__cxx1112basic_stringIcSt11char_traitsIcESaIcEED2Ev.exit

19:                                               ; preds = %15, %14
  %.0 = phi i1 [ false, %15 ], [ true, %14 ]
  %20 = landingpad { ptr, i32 }
          cleanup
  %21 = load ptr, ptr %9, align 8, !tbaa !44
  %22 = getelementptr inbounds nuw i8, ptr %9, i64 16
  %23 = icmp eq ptr %21, %22
  br i1 %23, label %_ZNKSt7__cxx1112basic_stringIcSt11char_traitsIcESaIcEE11_M_is_localEv.exit.thread.i.i, label %_ZNKSt7__cxx1112basic_stringIcSt11char_traitsIcESaIcEE11_M_is_localEv.exit.i.i

_ZNKSt7__cxx1112basic_stringIcSt11char_traitsIcESaIcEE11_M_is_localEv.exit.thread.i.i: ; preds = %19
  %24 = getelementptr inbounds nuw i8, ptr %9, i64 8
  %25 = load i64, ptr %24, align 8, !tbaa !48
  %26 = icmp ult i64 %25, 16
  call void @llvm.assume(i1 %26)
  br label %_ZNSt7__cxx1112basic_stringIcSt11char_traitsIcESaIcEED2Ev.exit

_ZNKSt7__cxx1112basic_stringIcSt11char_traitsIcESaIcEE11_M_is_localEv.exit.i.i: ; preds = %19
  call void @_ZdlPv(ptr noundef %21) #28
  br label %_ZNSt7__cxx1112basic_stringIcSt11char_traitsIcESaIcEED2Ev.exit

_ZNSt7__cxx1112basic_stringIcSt11char_traitsIcESaIcEED2Ev.exit: ; preds = %_ZNKSt7__cxx1112basic_stringIcSt11char_traitsIcESaIcEE11_M_is_localEv.exit.i.i, %_ZNKSt7__cxx1112basic_stringIcSt11char_traitsIcESaIcEE11_M_is_localEv.exit.thread.i.i, %17
  %.pn = phi { ptr, i32 } [ %18, %17 ], [ %20, %_ZNKSt7__cxx1112basic_stringIcSt11char_traitsIcESaIcEE11_M_is_localEv.exit.thread.i.i ], [ %20, %_ZNKSt7__cxx1112basic_stringIcSt11char_traitsIcESaIcEE11_M_is_localEv.exit.i.i ]
  %.3 = phi i1 [ true, %17 ], [ %.0, %_ZNKSt7__cxx1112basic_stringIcSt11char_traitsIcESaIcEE11_M_is_localEv.exit.thread.i.i ], [ %.0, %_ZNKSt7__cxx1112basic_stringIcSt11char_traitsIcESaIcEE11_M_is_localEv.exit.i.i ]
  %27 = load ptr, ptr %8, align 8, !tbaa !44
  %28 = getelementptr inbounds nuw i8, ptr %8, i64 16
  %29 = icmp eq ptr %27, %28
  br i1 %29, label %_ZNKSt7__cxx1112basic_stringIcSt11char_traitsIcESaIcEE11_M_is_localEv.exit.thread.i.i21, label %_ZNKSt7__cxx1112basic_stringIcSt11char_traitsIcESaIcEE11_M_is_localEv.exit.i.i20

_ZNKSt7__cxx1112basic_stringIcSt11char_traitsIcESaIcEE11_M_is_localEv.exit.thread.i.i21: ; preds = %_ZNSt7__cxx1112basic_stringIcSt11char_traitsIcESaIcEED2Ev.exit
  %30 = getelementptr inbounds nuw i8, ptr %8, i64 8
  %31 = load i64, ptr %30, align 8, !tbaa !48
  %32 = icmp ult i64 %31, 16
  call void @llvm.assume(i1 %32)
  br label %_ZNSt7__cxx1112basic_stringIcSt11char_traitsIcESaIcEED2Ev.exit22

_ZNKSt7__cxx1112basic_stringIcSt11char_traitsIcESaIcEE11_M_is_localEv.exit.i.i20: ; preds = %_ZNSt7__cxx1112basic_stringIcSt11char_traitsIcESaIcEED2Ev.exit
  call void @_ZdlPv(ptr noundef %27) #28
  br label %_ZNSt7__cxx1112basic_stringIcSt11char_traitsIcESaIcEED2Ev.exit22

_ZNSt7__cxx1112basic_stringIcSt11char_traitsIcESaIcEED2Ev.exit22: ; preds = %_ZNKSt7__cxx1112basic_stringIcSt11char_traitsIcESaIcEE11_M_is_localEv.exit.i.i20, %_ZNKSt7__cxx1112basic_stringIcSt11char_traitsIcESaIcEE11_M_is_localEv.exit.thread.i.i21
  %33 = load ptr, ptr %6, align 8, !tbaa !44
  %34 = getelementptr inbounds nuw i8, ptr %6, i64 16
  %35 = icmp eq ptr %33, %34
  br i1 %35, label %_ZNKSt7__cxx1112basic_stringIcSt11char_traitsIcESaIcEE11_M_is_localEv.exit.thread.i.i24, label %_ZNSt7__cxx1112basic_stringIcSt11char_traitsIcESaIcEED2Ev.exit25

_ZNSt7__cxx1112basic_stringIcSt11char_traitsIcESaIcEED2Ev.exit22.thread: ; preds = %12
  %36 = landingpad { ptr, i32 }
          cleanup
  %37 = load ptr, ptr %6, align 8, !tbaa !44
  %38 = getelementptr inbounds nuw i8, ptr %6, i64 16
  %39 = icmp eq ptr %37, %38
  br i1 %39, label %_ZNKSt7__cxx1112basic_stringIcSt11char_traitsIcESaIcEE11_M_is_localEv.exit.thread.i.i24.thread, label %_ZNSt7__cxx1112basic_stringIcSt11char_traitsIcESaIcEED2Ev.exit25.thread36

_ZNKSt7__cxx1112basic_stringIcSt11char_traitsIcESaIcEE11_M_is_localEv.exit.thread.i.i24.thread: ; preds = %_ZNSt7__cxx1112basic_stringIcSt11char_traitsIcESaIcEED2Ev.exit22.thread
  %40 = getelementptr inbounds nuw i8, ptr %6, i64 8
  %41 = load i64, ptr %40, align 8, !tbaa !48
  %42 = icmp ult i64 %41, 16
  call void @llvm.assume(i1 %42)
  br label %.sink.split

_ZNSt7__cxx1112basic_stringIcSt11char_traitsIcESaIcEED2Ev.exit25.thread36: ; preds = %_ZNSt7__cxx1112basic_stringIcSt11char_traitsIcESaIcEED2Ev.exit22.thread
  call void @_ZdlPv(ptr noundef %37) #28
  br label %.sink.split

_ZNKSt7__cxx1112basic_stringIcSt11char_traitsIcESaIcEE11_M_is_localEv.exit.thread.i.i24: ; preds = %_ZNSt7__cxx1112basic_stringIcSt11char_traitsIcESaIcEED2Ev.exit22
  %43 = getelementptr inbounds nuw i8, ptr %6, i64 8
  %44 = load i64, ptr %43, align 8, !tbaa !48
  %45 = icmp ult i64 %44, 16
  call void @llvm.assume(i1 %45)
  call void @llvm.lifetime.end.p0(i64 1, ptr nonnull %7) #27
  call void @llvm.lifetime.end.p0(i64 32, ptr nonnull %6) #27
  br i1 %.3, label %46, label %48

_ZNSt7__cxx1112basic_stringIcSt11char_traitsIcESaIcEED2Ev.exit25: ; preds = %_ZNSt7__cxx1112basic_stringIcSt11char_traitsIcESaIcEED2Ev.exit22
  call void @_ZdlPv(ptr noundef %33) #28
  call void @llvm.lifetime.end.p0(i64 1, ptr nonnull %7) #27
  call void @llvm.lifetime.end.p0(i64 32, ptr nonnull %6) #27
  br i1 %.3, label %46, label %48

.sink.split:                                      ; preds = %_ZNSt7__cxx1112basic_stringIcSt11char_traitsIcESaIcEED2Ev.exit25.thread, %_ZNSt7__cxx1112basic_stringIcSt11char_traitsIcESaIcEED2Ev.exit25.thread36, %_ZNKSt7__cxx1112basic_stringIcSt11char_traitsIcESaIcEE11_M_is_localEv.exit.thread.i.i24.thread
  %.pn.pn.pn29.ph = phi { ptr, i32 } [ %36, %_ZNKSt7__cxx1112basic_stringIcSt11char_traitsIcESaIcEE11_M_is_localEv.exit.thread.i.i24.thread ], [ %36, %_ZNSt7__cxx1112basic_stringIcSt11char_traitsIcESaIcEED2Ev.exit25.thread36 ], [ %16, %_ZNSt7__cxx1112basic_stringIcSt11char_traitsIcESaIcEED2Ev.exit25.thread ]
  call void @llvm.lifetime.end.p0(i64 1, ptr nonnull %7) #27
  call void @llvm.lifetime.end.p0(i64 32, ptr nonnull %6) #27
  br label %46

46:                                               ; preds = %.sink.split, %_ZNKSt7__cxx1112basic_stringIcSt11char_traitsIcESaIcEE11_M_is_localEv.exit.thread.i.i24, %_ZNSt7__cxx1112basic_stringIcSt11char_traitsIcESaIcEED2Ev.exit25
  %.pn.pn.pn29 = phi { ptr, i32 } [ %.pn, %_ZNSt7__cxx1112basic_stringIcSt11char_traitsIcESaIcEED2Ev.exit25 ], [ %.pn, %_ZNKSt7__cxx1112basic_stringIcSt11char_traitsIcESaIcEE11_M_is_localEv.exit.thread.i.i24 ], [ %.pn.pn.pn29.ph, %.sink.split ]
  call void @__cxa_free_exception(ptr %11) #27
  br label %48

47:                                               ; preds = %5
  ret void

48:                                               ; preds = %_ZNKSt7__cxx1112basic_stringIcSt11char_traitsIcESaIcEE11_M_is_localEv.exit.thread.i.i24, %_ZNSt7__cxx1112basic_stringIcSt11char_traitsIcESaIcEED2Ev.exit25, %46
  %.pn.pn.pn28 = phi { ptr, i32 } [ %.pn, %_ZNSt7__cxx1112basic_stringIcSt11char_traitsIcESaIcEED2Ev.exit25 ], [ %.pn.pn.pn29, %46 ], [ %.pn, %_ZNKSt7__cxx1112basic_stringIcSt11char_traitsIcESaIcEE11_M_is_localEv.exit.thread.i.i24 ]
  resume { ptr, i32 } %.pn.pn.pn28

49:                                               ; preds = %15
  unreachable
}